target datalayout = "e-m:e-p270:32:32-p271:32:32-p272:64:64-i64:64-i128:128-f80:128-n8:16:32:64-S128"
target triple = "x86_64-pc-linux-gnu"

%struct.AVRational = type { i32, i32 }
%struct.AVFilterContext = type { ptr, ptr, ptr, ptr, ptr, i32, ptr, ptr, i32, ptr, ptr, i32, i32, ptr, ptr, ptr, ptr, i32, ptr, i32, i32 }
%struct.MovieContext = type { ptr, i64, double, ptr, ptr, ptr, i32, i32, i64, i64, i32, ptr, ptr, i32, i32, ptr, ptr, ptr }
%struct.MovieStream = type { ptr, ptr, ptr, i64, i64, ptr, i32 }
%struct.AVChannelLayout = type { i32, i32, %union.anon.2, ptr }
%union.anon.2 = type { i64 }
%struct.AVFilterFormatsConfig = type { ptr, ptr, ptr, ptr, ptr }
%struct.AVFilterLink = type { ptr, ptr, ptr, ptr, i32, i32, i32, i32, %struct.AVRational, i32, i32, i32, %struct.AVChannelLayout, %struct.AVRational, ptr, i32, %struct.AVFilterFormatsConfig, %struct.AVFilterFormatsConfig }
%struct.AVFrame = type { [8 x ptr], [8 x i32], ptr, i32, i32, i32, i32, i32, %struct.AVRational, i64, i64, %struct.AVRational, i32, ptr, i32, i32, [8 x ptr], ptr, i32, ptr, i32, i32, i32, i32, i32, i32, i32, i64, ptr, i32, ptr, ptr, i64, i64, i64, i64, ptr, %struct.AVChannelLayout, i64 }

@.str.56 = private unnamed_addr constant [37 x i8] c"Discontinuity in stream:%d diff:%ld\0A\00", align 1

; Function Attrs: nounwind uwtable
define internal i32 @decode_packet(ptr noundef %0, i32 noundef %1) #1 {
  %3 = alloca i32, align 4
  %4 = alloca ptr, align 8
  %5 = alloca i32, align 4
  %6 = alloca ptr, align 8
  %7 = alloca ptr, align 8
  %8 = alloca ptr, align 8
  %9 = alloca ptr, align 8
  %10 = alloca ptr, align 8
  %11 = alloca ptr, align 8
  %12 = alloca i32, align 4
  %13 = alloca i32, align 4
  %14 = alloca %struct.AVRational, align 4
  %15 = alloca i64, align 8
  %16 = alloca %struct.AVRational, align 4
  store ptr %0, ptr %4, align 8, !tbaa !4
  store i32 %1, ptr %5, align 4, !tbaa !26
  call void @llvm.lifetime.start.p0(i64 8, ptr %6) #11
  %17 = load ptr, ptr %4, align 8, !tbaa !4
  %18 = getelementptr inbounds nuw %struct.AVFilterContext, ptr %17, i32 0, i32 7
  %19 = load ptr, ptr %18, align 8, !tbaa !119
  %20 = load i32, ptr %5, align 4, !tbaa !26
  %21 = sext i32 %20 to i64
  %22 = getelementptr inbounds ptr, ptr %19, i64 %21
  %23 = load ptr, ptr %22, align 8, !tbaa !120
  store ptr %23, ptr %6, align 8, !tbaa !120
  call void @llvm.lifetime.start.p0(i64 8, ptr %7) #11
  %24 = load ptr, ptr %4, align 8, !tbaa !4
  %25 = getelementptr inbounds nuw %struct.AVFilterContext, ptr %24, i32 0, i32 9
  %26 = load ptr, ptr %25, align 8, !tbaa !9
  store ptr %26, ptr %7, align 8, !tbaa !22
  call void @llvm.lifetime.start.p0(i64 8, ptr %8) #11
  %27 = load ptr, ptr %7, align 8, !tbaa !22
  %28 = getelementptr inbounds nuw %struct.MovieContext, ptr %27, i32 0, i32 15
  %29 = load ptr, ptr %28, align 8, !tbaa !73
  %30 = load i32, ptr %5, align 4, !tbaa !26
  %31 = sext i32 %30 to i64
  %32 = getelementptr inbounds %struct.MovieStream, ptr %29, i64 %31
  store ptr %32, ptr %8, align 8, !tbaa !105
  call void @llvm.lifetime.start.p0(i64 8, ptr %9) #11
  %33 = load ptr, ptr %7, align 8, !tbaa !22
  %34 = getelementptr inbounds nuw %struct.MovieContext, ptr %33, i32 0, i32 15
  %35 = load ptr, ptr %34, align 8, !tbaa !73
  %36 = load i32, ptr %5, align 4, !tbaa !26
  %37 = sext i32 %36 to i64
  %38 = getelementptr inbounds %struct.MovieStream, ptr %35, i64 %37
  %39 = getelementptr inbounds nuw %struct.MovieStream, ptr %38, i32 0, i32 2
  %40 = load ptr, ptr %39, align 8, !tbaa !116
  store ptr %40, ptr %9, align 8, !tbaa !162
  call void @llvm.lifetime.start.p0(i64 8, ptr %10) #11
  %41 = load ptr, ptr %7, align 8, !tbaa !22
  %42 = getelementptr inbounds nuw %struct.MovieContext, ptr %41, i32 0, i32 15
  %43 = load ptr, ptr %42, align 8, !tbaa !73
  %44 = load i32, ptr %5, align 4, !tbaa !26
  %45 = sext i32 %44 to i64
  %46 = getelementptr inbounds %struct.MovieStream, ptr %43, i64 %45
  %47 = getelementptr inbounds nuw %struct.MovieStream, ptr %46, i32 0, i32 5
  %48 = load ptr, ptr %47, align 8, !tbaa !85
  store ptr %48, ptr %10, align 8, !tbaa !163
  call void @llvm.lifetime.start.p0(i64 8, ptr %11) #11
  %49 = load ptr, ptr %7, align 8, !tbaa !22
  %50 = getelementptr inbounds nuw %struct.MovieContext, ptr %49, i32 0, i32 11
  %51 = load ptr, ptr %50, align 8, !tbaa !72
  store ptr %51, ptr %11, align 8, !tbaa !181
  call void @llvm.lifetime.start.p0(i64 4, ptr %12) #11
  store i32 0, ptr %12, align 4, !tbaa !26
  %52 = load ptr, ptr %7, align 8, !tbaa !22
  %53 = getelementptr inbounds nuw %struct.MovieContext, ptr %52, i32 0, i32 13
  %54 = load i32, ptr %53, align 8, !tbaa !122
  %55 = icmp ne i32 %54, 0
  br i1 %55, label %65, label %56

56:                                               ; preds = %2
  %57 = load ptr, ptr %9, align 8, !tbaa !162
  %58 = load ptr, ptr %11, align 8, !tbaa !181
  %59 = call i32 @avcodec_send_packet(ptr noundef %57, ptr noundef %58)
  store i32 %59, ptr %12, align 4, !tbaa !26
  %60 = load i32, ptr %12, align 4, !tbaa !26
  %61 = icmp slt i32 %60, 0
  br i1 %61, label %62, label %64

62:                                               ; preds = %56
  %63 = load i32, ptr %12, align 4, !tbaa !26
  store i32 %63, ptr %3, align 4
  store i32 1, ptr %13, align 4
  br label %184

64:                                               ; preds = %56
  br label %65

65:                                               ; preds = %64, %2
  %66 = load i32, ptr %12, align 4, !tbaa !26
  %67 = icmp sge i32 %66, 0
  br i1 %67, label %68, label %183

68:                                               ; preds = %65
  %69 = load ptr, ptr %9, align 8, !tbaa !162
  %70 = load ptr, ptr %10, align 8, !tbaa !163
  %71 = call i32 @avcodec_receive_frame(ptr noundef %69, ptr noundef %70)
  store i32 %71, ptr %12, align 4, !tbaa !26
  %72 = load i32, ptr %12, align 4, !tbaa !26
  %73 = icmp slt i32 %72, 0
  br i1 %73, label %74, label %83

74:                                               ; preds = %68
  %75 = load i32, ptr %12, align 4, !tbaa !26
  %76 = icmp eq i32 %75, -541478725
  br i1 %76, label %80, label %77

77:                                               ; preds = %74
  %78 = load i32, ptr %12, align 4, !tbaa !26
  %79 = icmp eq i32 %78, -11
  br i1 %79, label %80, label %81

80:                                               ; preds = %77, %74
  store i32 0, ptr %3, align 4
  store i32 1, ptr %13, align 4
  br label %184

81:                                               ; preds = %77
  %82 = load i32, ptr %12, align 4, !tbaa !26
  store i32 %82, ptr %3, align 4
  store i32 1, ptr %13, align 4
  br label %184

83:                                               ; preds = %68
  %84 = load ptr, ptr %10, align 8, !tbaa !163
  %85 = getelementptr inbounds nuw %struct.AVFrame, ptr %84, i32 0, i32 27
  %86 = load i64, ptr %85, align 8, !tbaa !182
  %87 = load ptr, ptr %10, align 8, !tbaa !163
  %88 = getelementptr inbounds nuw %struct.AVFrame, ptr %87, i32 0, i32 9
  store i64 %86, ptr %88, align 8, !tbaa !183
  %89 = load ptr, ptr %10, align 8, !tbaa !163
  %90 = getelementptr inbounds nuw %struct.AVFrame, ptr %89, i32 0, i32 9
  %91 = load i64, ptr %90, align 8, !tbaa !183
  %92 = icmp ne i64 %91, -9223372036854775808
  br i1 %92, label %93, label %169

93:                                               ; preds = %83
  %94 = load ptr, ptr %7, align 8, !tbaa !22
  %95 = getelementptr inbounds nuw %struct.MovieContext, ptr %94, i32 0, i32 9
  %96 = load i64, ptr %95, align 8, !tbaa !184
  %97 = icmp ne i64 %96, 0
  br i1 %97, label %98, label %113

98:                                               ; preds = %93
  %99 = load ptr, ptr %7, align 8, !tbaa !22
  %100 = getelementptr inbounds nuw %struct.MovieContext, ptr %99, i32 0, i32 9
  %101 = load i64, ptr %100, align 8, !tbaa !184
  %102 = getelementptr inbounds nuw %struct.AVRational, ptr %14, i32 0, i32 0
  store i32 1, ptr %102, align 4, !tbaa !82
  %103 = getelementptr inbounds nuw %struct.AVRational, ptr %14, i32 0, i32 1
  store i32 1000000, ptr %103, align 4, !tbaa !83
  %104 = load ptr, ptr %6, align 8, !tbaa !120
  %105 = getelementptr inbounds nuw %struct.AVFilterLink, ptr %104, i32 0, i32 13
  %106 = load i64, ptr %14, align 4
  %107 = load i64, ptr %105, align 8
  %108 = call i64 @av_rescale_q_rnd(i64 noundef %101, i64 %106, i64 %107, i32 noundef 3) #13
  %109 = load ptr, ptr %10, align 8, !tbaa !163
  %110 = getelementptr inbounds nuw %struct.AVFrame, ptr %109, i32 0, i32 9
  %111 = load i64, ptr %110, align 8, !tbaa !183
  %112 = add nsw i64 %111, %108
  store i64 %112, ptr %110, align 8, !tbaa !183
  br label %113

113:                                              ; preds = %98, %93
  %114 = load ptr, ptr %8, align 8, !tbaa !105
  %115 = getelementptr inbounds nuw %struct.MovieStream, ptr %114, i32 0, i32 3
  %116 = load i64, ptr %115, align 8, !tbaa !84
  %117 = icmp ne i64 %116, 0
  br i1 %117, label %118, label %163

118:                                              ; preds = %113
  %119 = load ptr, ptr %8, align 8, !tbaa !105
  %120 = getelementptr inbounds nuw %struct.MovieStream, ptr %119, i32 0, i32 4
  %121 = load i64, ptr %120, align 8, !tbaa !128
  %122 = icmp ne i64 %121, -9223372036854775808
  br i1 %122, label %123, label %162

123:                                              ; preds = %118
  call void @llvm.lifetime.start.p0(i64 8, ptr %15) #11
  %124 = load ptr, ptr %10, align 8, !tbaa !163
  %125 = getelementptr inbounds nuw %struct.AVFrame, ptr %124, i32 0, i32 9
  %126 = load i64, ptr %125, align 8, !tbaa !183
  %127 = load ptr, ptr %8, align 8, !tbaa !105
  %128 = getelementptr inbounds nuw %struct.MovieStream, ptr %127, i32 0, i32 4
  %129 = load i64, ptr %128, align 8, !tbaa !128
  %130 = sub nsw i64 %126, %129
  store i64 %130, ptr %15, align 8, !tbaa !50
  %131 = load i64, ptr %15, align 8, !tbaa !50
  %132 = icmp slt i64 %131, 0
  br i1 %132, label %139, label %133

133:                                              ; preds = %123
  %134 = load i64, ptr %15, align 8, !tbaa !50
  %135 = load ptr, ptr %8, align 8, !tbaa !105
  %136 = getelementptr inbounds nuw %struct.MovieStream, ptr %135, i32 0, i32 3
  %137 = load i64, ptr %136, align 8, !tbaa !84
  %138 = icmp sgt i64 %134, %137
  br i1 %138, label %139, label %161

139:                                              ; preds = %133, %123
  %140 = load ptr, ptr %4, align 8, !tbaa !4
  %141 = load i32, ptr %5, align 4, !tbaa !26
  %142 = load i64, ptr %15, align 8, !tbaa !50
  call void (ptr, i32, ptr, ...) @av_log(ptr noundef %140, i32 noundef 40, ptr noundef @.str.56, i32 noundef %141, i64 noundef %142)
  %143 = load i64, ptr %15, align 8, !tbaa !50
  %144 = sub nsw i64 0, %143
  %145 = load ptr, ptr %6, align 8, !tbaa !120
  %146 = getelementptr inbounds nuw %struct.AVFilterLink, ptr %145, i32 0, i32 13
  %147 = getelementptr inbounds nuw %struct.AVRational, ptr %16, i32 0, i32 0
  store i32 1, ptr %147, align 4, !tbaa !82
  %148 = getelementptr inbounds nuw %struct.AVRational, ptr %16, i32 0, i32 1
  store i32 1000000, ptr %148, align 4, !tbaa !83
  %149 = load i64, ptr %146, align 8
  %150 = load i64, ptr %16, align 4
  %151 = call i64 @av_rescale_q_rnd(i64 noundef %144, i64 %149, i64 %150, i32 noundef 3) #13
  %152 = load ptr, ptr %7, align 8, !tbaa !22
  %153 = getelementptr inbounds nuw %struct.MovieContext, ptr %152, i32 0, i32 9
  %154 = load i64, ptr %153, align 8, !tbaa !184
  %155 = add nsw i64 %154, %151
  store i64 %155, ptr %153, align 8, !tbaa !184
  %156 = load i64, ptr %15, align 8, !tbaa !50
  %157 = load ptr, ptr %10, align 8, !tbaa !163
  %158 = getelementptr inbounds nuw %struct.AVFrame, ptr %157, i32 0, i32 9
  %159 = load i64, ptr %158, align 8, !tbaa !183
  %160 = sub nsw i64 %159, %156
  store i64 %160, ptr %158, align 8, !tbaa !183
  br label %161

161:                                              ; preds = %139, %133
  call void @llvm.lifetime.end.p0(i64 8, ptr %15) #11
  br label %162

162:                                              ; preds = %161, %118
  br label %163

163:                                              ; preds = %162, %113
  %164 = load ptr, ptr %10, align 8, !tbaa !163
  %165 = getelementptr inbounds nuw %struct.AVFrame, ptr %164, i32 0, i32 9
  %166 = load i64, ptr %165, align 8, !tbaa !183
  %167 = load ptr, ptr %8, align 8, !tbaa !105
  %168 = getelementptr inbounds nuw %struct.MovieStream, ptr %167, i32 0, i32 4
  store i64 %166, ptr %168, align 8, !tbaa !128
  br label %169

169:                                              ; preds = %163, %83
  %170 = load ptr, ptr %6, align 8, !tbaa !120
  %171 = load ptr, ptr %10, align 8, !tbaa !163
  %172 = call ptr @av_frame_clone(ptr noundef %171)
  %173 = call i32 @ff_filter_frame(ptr noundef %170, ptr noundef %172)
  store i32 %173, ptr %12, align 4, !tbaa !26
  %174 = load i32, ptr %12, align 4, !tbaa !26
  %175 = icmp slt i32 %174, 0
  br i1 %175, label %176, label %178

176:                                              ; preds = %169
  %177 = load i32, ptr %12, align 4, !tbaa !26
  store i32 %177, ptr %3, align 4
  store i32 1, ptr %13, align 4
  br label %184

178:                                              ; preds = %169
  %179 = load i32, ptr %12, align 4, !tbaa !26
  %180 = icmp eq i32 %179, 0
  br i1 %180, label %181, label %182

181:                                              ; preds = %178
  store i32 1, ptr %3, align 4
  store i32 1, ptr %13, align 4
  br label %184

182:                                              ; preds = %178
  br label %183

183:                                              ; preds = %182, %65
  store i32 0, ptr %3, align 4
  store i32 1, ptr %13, align 4
  br label %184

184:                                              ; preds = %183, %181, %176, %81, %80, %62
  call void @llvm.lifetime.end.p0(i64 4, ptr %12) #11
  call void @llvm.lifetime.end.p0(i64 8, ptr %11) #11
  call void @llvm.lifetime.end.p0(i64 8, ptr %10) #11
  call void @llvm.lifetime.end.p0(i64 8, ptr %9) #11
  call void @llvm.lifetime.end.p0(i64 8, ptr %8) #11
  call void @llvm.lifetime.end.p0(i64 8, ptr %7) #11
  call void @llvm.lifetime.end.p0(i64 8, ptr %6) #11
  %185 = load i32, ptr %3, align 4
  ret i32 %185
}