; Function Attrs: nounwind uwtable
define internal fastcc range(i32 -2147483648, 2) i32 @decode_packet(ptr noundef %0, i32 noundef %1) unnamed_addr #1 {
  %3 = getelementptr inbounds nuw i8, ptr %0, i64 56
  %4 = load ptr, ptr %3, align 8, !tbaa !109
  %5 = sext i32 %1 to i64
  %6 = getelementptr inbounds ptr, ptr %4, i64 %5
  %7 = load ptr, ptr %6, align 8, !tbaa !110
  %8 = getelementptr inbounds nuw i8, ptr %0, i64 72
  %9 = load ptr, ptr %8, align 8, !tbaa !4
  %10 = getelementptr inbounds nuw i8, ptr %9, i64 104
  %11 = load ptr, ptr %10, align 8, !tbaa !66
  %12 = getelementptr inbounds %struct.MovieStream, ptr %11, i64 %5
  %13 = getelementptr inbounds nuw i8, ptr %12, i64 16
  %14 = load ptr, ptr %13, align 8, !tbaa !106
  %15 = getelementptr inbounds nuw i8, ptr %12, i64 40
  %16 = load ptr, ptr %15, align 8, !tbaa !83
  %17 = getelementptr inbounds nuw i8, ptr %9, i64 96
  %18 = load i32, ptr %17, align 8, !tbaa !112
  %.not = icmp eq i32 %18, 0
  br i1 %.not, label %19, label %24

19:                                               ; preds = %2
  %20 = getelementptr inbounds nuw i8, ptr %9, i64 80
  %21 = load ptr, ptr %20, align 8, !tbaa !65
  %22 = tail call i32 @avcodec_send_packet(ptr noundef %14, ptr noundef %21) #13
  %23 = icmp slt i32 %22, 0
  br i1 %23, label %70, label %24

24:                                               ; preds = %2, %19
  %25 = tail call i32 @avcodec_receive_frame(ptr noundef %14, ptr noundef %16) #13
  %26 = icmp slt i32 %25, 0
  br i1 %26, label %27, label %29

27:                                               ; preds = %24
  switch i32 %25, label %28 [
    i32 -11, label %70
    i32 -541478725, label %70
  ]

28:                                               ; preds = %27
  br label %70

29:                                               ; preds = %24
  %30 = getelementptr inbounds nuw i8, ptr %16, i64 304
  %31 = load i64, ptr %30, align 8, !tbaa !165
  %32 = getelementptr inbounds nuw i8, ptr %16, i64 136
  store i64 %31, ptr %32, align 8, !tbaa !166
  %.not64 = icmp eq i64 %31, -9223372036854775808
  br i1 %.not64, label %64, label %33

33:                                               ; preds = %29
  %34 = getelementptr inbounds nuw i8, ptr %9, i64 64
  %35 = load i64, ptr %34, align 8, !tbaa !167
  %.not65 = icmp eq i64 %35, 0
  br i1 %.not65, label %41, label %36

36:                                               ; preds = %33
  %37 = getelementptr inbounds nuw i8, ptr %7, i64 96
  %38 = load i64, ptr %37, align 8
  %39 = tail call i64 @av_rescale_q_rnd(i64 noundef %35, i64 4294967296000001, i64 %38, i32 noundef 3) #15
  %40 = add nsw i64 %39, %31
  store i64 %40, ptr %32, align 8, !tbaa !166
  br label %41

41:                                               ; preds = %36, %33
  %42 = phi i64 [ %40, %36 ], [ %31, %33 ]
  %43 = getelementptr inbounds nuw i8, ptr %12, i64 24
  %44 = load i64, ptr %43, align 8, !tbaa !82
  %.not66 = icmp eq i64 %44, 0
  br i1 %.not66, label %61, label %45

45:                                               ; preds = %41
  %46 = getelementptr inbounds nuw i8, ptr %12, i64 32
  %47 = load i64, ptr %46, align 8, !tbaa !119
  %.not67 = icmp eq i64 %47, -9223372036854775808
  br i1 %.not67, label %61, label %48

48:                                               ; preds = %45
  %49 = sub nsw i64 %42, %47
  %50 = icmp slt i64 %49, 0
  %51 = icmp sgt i64 %49, %44
  %or.cond = or i1 %50, %51
  br i1 %or.cond, label %52, label %61

52:                                               ; preds = %48
  tail call void (ptr, i32, ptr, ...) @av_log(ptr noundef nonnull %0, i32 noundef 40, ptr noundef nonnull @.str.56, i32 noundef %1, i64 noundef %49) #13
  %53 = sub nsw i64 0, %49
  %54 = getelementptr inbounds nuw i8, ptr %7, i64 96
  %55 = load i64, ptr %54, align 8
  %56 = tail call i64 @av_rescale_q_rnd(i64 noundef %53, i64 %55, i64 4294967296000001, i32 noundef 3) #15
  %57 = load i64, ptr %34, align 8, !tbaa !167
  %58 = add nsw i64 %57, %56
  store i64 %58, ptr %34, align 8, !tbaa !167
  %59 = load i64, ptr %32, align 8, !tbaa !166
  %60 = sub nsw i64 %59, %49
  store i64 %60, ptr %32, align 8, !tbaa !166
  br label %61

61:                                               ; preds = %52, %48, %45, %41
  %62 = phi i64 [ %60, %52 ], [ %42, %48 ], [ %42, %45 ], [ %42, %41 ]
  %63 = getelementptr inbounds nuw i8, ptr %12, i64 32
  store i64 %62, ptr %63, align 8, !tbaa !119
  br label %64

64:                                               ; preds = %61, %29
  %65 = tail call ptr @av_frame_clone(ptr noundef nonnull %16) #13
  %66 = tail call i32 @ff_filter_frame(ptr noundef %7, ptr noundef %65) #13
  %67 = icmp slt i32 %66, 0
  br i1 %67, label %70, label %68

68:                                               ; preds = %64
  %69 = icmp eq i32 %66, 0
  %. = zext i1 %69 to i32
  br label %70

70:                                               ; preds = %68, %64, %27, %27, %19, %28
  %.0 = phi i32 [ %25, %28 ], [ %22, %19 ], [ 0, %27 ], [ 0, %27 ], [ %66, %64 ], [ %., %68 ]
  ret i32 %.0
}